target datalayout = "e-m:e-p270:32:32-p271:32:32-p272:64:64-i64:64-i128:128-f80:128-n8:16:32:64-S128"
target triple = "x86_64-pc-linux-gnu"

%"class.llvm::SmallPtrSetImplBase.base" = type <{ ptr, ptr, i32, i32, i32 }>
%"struct.llvm::AnalysisKey" = type { [8 x i8] }
%"class.llvm::BasicAAResult" = type { ptr, ptr, ptr, ptr, ptr, %"class.llvm::SmallPtrSet.10" }
%"class.llvm::SmallPtrSet.10" = type { %"class.llvm::SmallPtrSetImpl.base.12", [16 x ptr] }
%"class.llvm::SmallPtrSetImpl.base.12" = type { %"class.llvm::SmallPtrSetImplBase.base" }

@_ZN4llvm18AssumptionAnalysis3KeyE = external global %"struct.llvm::AnalysisKey", align 8
@_ZN4llvm21DominatorTreeAnalysis3KeyE = external global %"struct.llvm::AnalysisKey", align 8

; Function Attrs: mustprogress nounwind uwtable
define linkonce_odr hidden noundef ptr @_ZN4llvm17AnalysisInfoMixinINS_21DominatorTreeAnalysisEE2IDEv() #1 comdat align 2 {
  ret ptr @_ZN4llvm21DominatorTreeAnalysis3KeyE
}

; Function Attrs: mustprogress nounwind uwtable
define linkonce_odr hidden noundef ptr @_ZN4llvm17AnalysisInfoMixinINS_18AssumptionAnalysisEE2IDEv() #1 comdat align 2 {
  ret ptr @_ZN4llvm18AssumptionAnalysis3KeyE
}

; Function Attrs: mustprogress nounwind uwtable
define linkonce_odr hidden noundef zeroext i1 @_ZN4llvm15AnalysisManagerINS_8FunctionEJEE11Invalidator10invalidateINS_21DominatorTreeAnalysisEEEbRS1_RKNS_17PreservedAnalysesE(ptr noundef nonnull align 8 dereferenceable(16) %0, ptr noundef nonnull align 8 dereferenceable(136) %1, ptr noundef nonnull align 8 dereferenceable(96) %2) #1 comdat align 2 {
  %4 = alloca ptr, align 8
  %5 = alloca ptr, align 8
  %6 = alloca ptr, align 8
  store ptr %0, ptr %4, align 8
  store ptr %1, ptr %5, align 8
  store ptr %2, ptr %6, align 8
  %7 = load ptr, ptr %4, align 8
  %8 = call noundef ptr @_ZN4llvm17AnalysisInfoMixinINS_21DominatorTreeAnalysisEE2IDEv()
  %9 = load ptr, ptr %5, align 8
  %10 = load ptr, ptr %6, align 8
  %11 = call noundef zeroext i1 @_ZN4llvm15AnalysisManagerINS_8FunctionEJEE11Invalidator14invalidateImplINS_6detail19AnalysisResultModelIS1_NS_21DominatorTreeAnalysisENS_13DominatorTreeES3_Lb1EEEEEbPNS_11AnalysisKeyERS1_RKNS_17PreservedAnalysesE(ptr noundef nonnull align 8 dereferenceable(16) %7, ptr noundef %8, ptr noundef nonnull align 8 dereferenceable(136) %9, ptr noundef nonnull align 8 dereferenceable(96) %10)
  ret i1 %11
}

; Function Attrs: mustprogress nounwind uwtable
define linkonce_odr hidden noundef zeroext i1 @_ZN4llvm15AnalysisManagerINS_8FunctionEJEE11Invalidator10invalidateINS_18AssumptionAnalysisEEEbRS1_RKNS_17PreservedAnalysesE(ptr noundef nonnull align 8 dereferenceable(16) %0, ptr noundef nonnull align 8 dereferenceable(136) %1, ptr noundef nonnull align 8 dereferenceable(96) %2) #1 comdat align 2 {
  %4 = alloca ptr, align 8
  %5 = alloca ptr, align 8
  %6 = alloca ptr, align 8
  store ptr %0, ptr %4, align 8
  store ptr %1, ptr %5, align 8
  store ptr %2, ptr %6, align 8
  %7 = load ptr, ptr %4, align 8
  %8 = call noundef ptr @_ZN4llvm17AnalysisInfoMixinINS_18AssumptionAnalysisEE2IDEv()
  %9 = load ptr, ptr %5, align 8
  %10 = load ptr, ptr %6, align 8
  %11 = call noundef zeroext i1 @_ZN4llvm15AnalysisManagerINS_8FunctionEJEE11Invalidator14invalidateImplINS_6detail19AnalysisResultModelIS1_NS_18AssumptionAnalysisENS_15AssumptionCacheES3_Lb1EEEEEbPNS_11AnalysisKeyERS1_RKNS_17PreservedAnalysesE(ptr noundef nonnull align 8 dereferenceable(16) %7, ptr noundef %8, ptr noundef nonnull align 8 dereferenceable(136) %9, ptr noundef nonnull align 8 dereferenceable(96) %10)
  ret i1 %11
}

; Function Attrs: mustprogress nounwind uwtable
define dso_local noundef zeroext i1 @_ZN4llvm13BasicAAResult10invalidateERNS_8FunctionERKNS_17PreservedAnalysesERNS_15AnalysisManagerIS1_JEE11InvalidatorE(ptr noundef nonnull align 8 dereferenceable(200) %0, ptr noundef nonnull align 8 dereferenceable(136) %1, ptr noundef nonnull align 8 dereferenceable(96) %2, ptr noundef nonnull align 8 dereferenceable(16) %3) #1 align 2 {
  %5 = alloca i1, align 1
  %6 = alloca ptr, align 8
  %7 = alloca ptr, align 8
  %8 = alloca ptr, align 8
  %9 = alloca ptr, align 8
  store ptr %0, ptr %6, align 8
  store ptr %1, ptr %7, align 8
  store ptr %2, ptr %8, align 8
  store ptr %3, ptr %9, align 8
  %10 = load ptr, ptr %6, align 8
  %11 = load ptr, ptr %9, align 8
  %12 = load ptr, ptr %7, align 8
  %13 = load ptr, ptr %8, align 8
  %14 = call noundef zeroext i1 @_ZN4llvm15AnalysisManagerINS_8FunctionEJEE11Invalidator10invalidateINS_18AssumptionAnalysisEEEbRS1_RKNS_17PreservedAnalysesE(ptr noundef nonnull align 8 dereferenceable(16) %11, ptr noundef nonnull align 8 dereferenceable(136) %12, ptr noundef nonnull align 8 dereferenceable(96) %13)
  br i1 %14, label %24, label %15

15:                                               ; preds = %4
  %16 = getelementptr inbounds nuw %"class.llvm::BasicAAResult", ptr %10, i32 0, i32 4
  %17 = load ptr, ptr %16, align 8
  %18 = icmp ne ptr %17, null
  br i1 %18, label %19, label %25

19:                                               ; preds = %15
  %20 = load ptr, ptr %9, align 8
  %21 = load ptr, ptr %7, align 8
  %22 = load ptr, ptr %8, align 8
  %23 = call noundef zeroext i1 @_ZN4llvm15AnalysisManagerINS_8FunctionEJEE11Invalidator10invalidateINS_21DominatorTreeAnalysisEEEbRS1_RKNS_17PreservedAnalysesE(ptr noundef nonnull align 8 dereferenceable(16) %20, ptr noundef nonnull align 8 dereferenceable(136) %21, ptr noundef nonnull align 8 dereferenceable(96) %22)
  br i1 %23, label %24, label %25

24:                                               ; preds = %19, %4
  store i1 true, ptr %5, align 1
  br label %26

25:                                               ; preds = %19, %15
  store i1 false, ptr %5, align 1
  br label %26

26:                                               ; preds = %25, %24
  %27 = load i1, ptr %5, align 1
  ret i1 %27
}