; Function Attrs: mustprogress nounwind uwtable
define dso_local noundef zeroext i1 @_ZN4llvm13BasicAAResult10invalidateERNS_8FunctionERKNS_17PreservedAnalysesERNS_15AnalysisManagerIS1_JEE11InvalidatorE(ptr nocapture noundef nonnull readonly align 8 dereferenceable(200) %0, ptr noundef nonnull align 8 dereferenceable(136) %1, ptr noundef nonnull align 8 dereferenceable(96) %2, ptr noundef nonnull align 8 dereferenceable(16) %3) local_unnamed_addr #0 align 2 {
  %5 = tail call noundef zeroext i1 @_ZN4llvm15AnalysisManagerINS_8FunctionEJEE11Invalidator14invalidateImplINS_6detail19AnalysisResultModelIS1_NS_18AssumptionAnalysisENS_15AssumptionCacheES3_Lb1EEEEEbPNS_11AnalysisKeyERS1_RKNS_17PreservedAnalysesE(ptr noundef nonnull align 8 dereferenceable(16) %3, ptr noundef nonnull @_ZN4llvm18AssumptionAnalysis3KeyE, ptr noundef nonnull align 8 dereferenceable(136) %1, ptr noundef nonnull align 8 dereferenceable(96) %2)
  br i1 %5, label %12, label %6

6:                                                ; preds = %4
  %7 = getelementptr inbounds nuw i8, ptr %0, i64 32
  %8 = load ptr, ptr %7, align 8
  %.not = icmp eq ptr %8, null
  br i1 %.not, label %11, label %9

9:                                                ; preds = %6
  %10 = tail call noundef zeroext i1 @_ZN4llvm15AnalysisManagerINS_8FunctionEJEE11Invalidator14invalidateImplINS_6detail19AnalysisResultModelIS1_NS_21DominatorTreeAnalysisENS_13DominatorTreeES3_Lb1EEEEEbPNS_11AnalysisKeyERS1_RKNS_17PreservedAnalysesE(ptr noundef nonnull align 8 dereferenceable(16) %3, ptr noundef nonnull @_ZN4llvm21DominatorTreeAnalysis3KeyE, ptr noundef nonnull align 8 dereferenceable(136) %1, ptr noundef nonnull align 8 dereferenceable(96) %2)
  br i1 %10, label %12, label %11

11:                                               ; preds = %9, %6
  br label %12

12:                                               ; preds = %4, %9, %11
  %.0 = phi i1 [ false, %11 ], [ true, %9 ], [ true, %4 ]
  ret i1 %.0
}